; Function Attrs: nounwind uwtable
define internal void @dissect_geran_cell_search_value(ptr noundef %0, ptr readnone captures(none) %1) #0 {
  %3 = alloca i32, align 4
  %4 = load i32, ptr @hf_nfapi_timeout, align 4
  %5 = tail call ptr @ptvcursor_add(ptr noundef %0, i32 noundef %4, i32 noundef 4, i32 noundef 0) #7
  %6 = load i32, ptr @hf_nfapi_number_of_arfcns, align 4
  %7 = call ptr @ptvcursor_add_ret_uint(ptr noundef %0, i32 noundef %6, i32 noundef 1, i32 noundef 0, ptr noundef nonnull %3) #7
  %8 = load i32, ptr @ett_nfapi_arfcn_list, align 4
  %9 = load i32, ptr %3, align 4
  %.not.i = icmp eq i32 %9, 0
  br i1 %.not.i, label %dissect_array_value.exit, label %10

10:                                               ; preds = %2
  %11 = call ptr (ptr, i32, i32, ptr, ...) @ptvcursor_add_text_with_subtree(ptr noundef %0, i32 noundef -1, i32 noundef %8, ptr noundef nonnull @.str.1839, ptr noundef nonnull @.str.2335) #7
  br label %12

12:                                               ; preds = %12, %10
  %13 = phi i32 [ 0, %10 ], [ %18, %12 ]
  %.016.i = phi i16 [ 0, %10 ], [ %17, %12 ]
  %14 = call ptr (ptr, i32, i32, ptr, ...) @ptvcursor_add_text_with_subtree(ptr noundef %0, i32 noundef -1, i32 noundef %8, ptr noundef nonnull @.str.1840, i32 noundef %13) #7
  %15 = load i32, ptr @hf_nfapi_arfcn, align 4
  %16 = call ptr @ptvcursor_add(ptr noundef %0, i32 noundef %15, i32 noundef 2, i32 noundef 0) #7
  call void @ptvcursor_pop_subtree(ptr noundef %0) #7
  %17 = add i16 %.016.i, 1
  %18 = zext i16 %17 to i32
  %19 = icmp ugt i32 %9, %18
  br i1 %19, label %12, label %20, !llvm.loop !4

20:                                               ; preds = %12
  call void @ptvcursor_pop_subtree(ptr noundef %0) #7
  br label %dissect_array_value.exit

dissect_array_value.exit:                         ; preds = %2, %20
  ret void
}